; Function Attrs: nounwind uwtable
define dso_local double @sampler_random_fract(ptr noundef %0) local_unnamed_addr #0 {
  br label %2

2:                                                ; preds = %2, %1
  %3 = tail call double @pg_prng_double(ptr noundef %0) #6
  %4 = fcmp oeq double %3, 0.000000e+00
  br i1 %4, label %2, label %5, !prof !4, !llvm.loop !5

5:                                                ; preds = %2
  ret double %3
}